target datalayout = "e-m:e-p270:32:32-p271:32:32-p272:64:64-i64:64-i128:128-f80:128-n8:16:32:64-S128"
target triple = "x86_64-pc-linux-gnu"

%struct.PROV_EC_CTX = type { ptr, ptr, ptr, ptr, i32, i32, ptr, i64, ptr, ptr }

@.str = private unnamed_addr constant [5 x i8] c"HKDF\00", align 1
@.str.1 = private unnamed_addr constant [50 x i8] c"../openssl/providers/implementations/kem/ec_kem.c\00", align 1

; Function Attrs: nounwind uwtable
define internal ptr @ec_curvename_get0(ptr noundef %0) #0 {
  %2 = alloca ptr, align 8
  %3 = alloca ptr, align 8
  store ptr %0, ptr %2, align 8, !tbaa !3
  call void @llvm.lifetime.start.p0(i64 8, ptr %3) #5
  %4 = load ptr, ptr %2, align 8, !tbaa !3
  %5 = call ptr @EC_KEY_get0_group(ptr noundef %4)
  store ptr %5, ptr %3, align 8, !tbaa !29
  %6 = load ptr, ptr %3, align 8, !tbaa !29
  %7 = call i32 @EC_GROUP_get_curve_name(ptr noundef %6)
  %8 = call ptr @EC_curve_nid2nist(i32 noundef %7)
  call void @llvm.lifetime.end.p0(i64 8, ptr %3) #5
  ret ptr %8
}

; Function Attrs: nounwind uwtable
define internal i32 @sender_authkey_set(ptr noundef %0, ptr noundef %1) #0 {
  %3 = alloca i32, align 4
  %4 = alloca ptr, align 8
  %5 = alloca ptr, align 8
  store ptr %0, ptr %4, align 8, !tbaa !19
  store ptr %1, ptr %5, align 8, !tbaa !3
  %6 = load ptr, ptr %4, align 8, !tbaa !19
  %7 = getelementptr inbounds nuw %struct.PROV_EC_CTX, ptr %6, i32 0, i32 1
  %8 = load ptr, ptr %7, align 8, !tbaa !53
  call void @EC_KEY_free(ptr noundef %8)
  %9 = load ptr, ptr %4, align 8, !tbaa !19
  %10 = getelementptr inbounds nuw %struct.PROV_EC_CTX, ptr %9, i32 0, i32 1
  store ptr null, ptr %10, align 8, !tbaa !53
  %11 = load ptr, ptr %5, align 8, !tbaa !3
  %12 = icmp ne ptr %11, null
  br i1 %12, label %13, label %22

13:                                               ; preds = %2
  %14 = load ptr, ptr %5, align 8, !tbaa !3
  %15 = call i32 @EC_KEY_up_ref(ptr noundef %14)
  %16 = icmp ne i32 %15, 0
  br i1 %16, label %18, label %17

17:                                               ; preds = %13
  store i32 0, ptr %3, align 4
  br label %23

18:                                               ; preds = %13
  %19 = load ptr, ptr %5, align 8, !tbaa !3
  %20 = load ptr, ptr %4, align 8, !tbaa !19
  %21 = getelementptr inbounds nuw %struct.PROV_EC_CTX, ptr %20, i32 0, i32 1
  store ptr %19, ptr %21, align 8, !tbaa !53
  br label %22

22:                                               ; preds = %18, %2
  store i32 1, ptr %3, align 4
  br label %23

23:                                               ; preds = %22, %17
  %24 = load i32, ptr %3, align 4
  ret i32 %24
}

; Function Attrs: nounwind uwtable
define internal i32 @recipient_key_set(ptr noundef %0, ptr noundef %1) #0 {
  %3 = alloca i32, align 4
  %4 = alloca ptr, align 8
  %5 = alloca ptr, align 8
  %6 = alloca ptr, align 8
  %7 = alloca i32, align 4
  store ptr %0, ptr %4, align 8, !tbaa !19
  store ptr %1, ptr %5, align 8, !tbaa !3
  %8 = load ptr, ptr %4, align 8, !tbaa !19
  %9 = getelementptr inbounds nuw %struct.PROV_EC_CTX, ptr %8, i32 0, i32 0
  %10 = load ptr, ptr %9, align 8, !tbaa !50
  call void @EC_KEY_free(ptr noundef %10)
  %11 = load ptr, ptr %4, align 8, !tbaa !19
  %12 = getelementptr inbounds nuw %struct.PROV_EC_CTX, ptr %11, i32 0, i32 0
  store ptr null, ptr %12, align 8, !tbaa !50
  %13 = load ptr, ptr %5, align 8, !tbaa !3
  %14 = icmp ne ptr %13, null
  br i1 %14, label %15, label %45

15:                                               ; preds = %2
  call void @llvm.lifetime.start.p0(i64 8, ptr %6) #5
  %16 = load ptr, ptr %5, align 8, !tbaa !3
  %17 = call ptr @ec_curvename_get0(ptr noundef %16)
  store ptr %17, ptr %6, align 8, !tbaa !10
  %18 = load ptr, ptr %6, align 8, !tbaa !10
  %19 = icmp eq ptr %18, null
  br i1 %19, label %20, label %21

20:                                               ; preds = %15
  store i32 -2, ptr %3, align 4
  store i32 1, ptr %7, align 4
  br label %42

21:                                               ; preds = %15
  %22 = load ptr, ptr %6, align 8, !tbaa !10
  %23 = call ptr @ossl_HPKE_KEM_INFO_find_curve(ptr noundef %22)
  %24 = load ptr, ptr %4, align 8, !tbaa !19
  %25 = getelementptr inbounds nuw %struct.PROV_EC_CTX, ptr %24, i32 0, i32 9
  store ptr %23, ptr %25, align 8, !tbaa !51
  %26 = load ptr, ptr %4, align 8, !tbaa !19
  %27 = getelementptr inbounds nuw %struct.PROV_EC_CTX, ptr %26, i32 0, i32 9
  %28 = load ptr, ptr %27, align 8, !tbaa !51
  %29 = icmp eq ptr %28, null
  br i1 %29, label %30, label %31

30:                                               ; preds = %21
  store i32 -2, ptr %3, align 4
  store i32 1, ptr %7, align 4
  br label %42

31:                                               ; preds = %21
  %32 = load ptr, ptr %5, align 8, !tbaa !3
  %33 = call i32 @EC_KEY_up_ref(ptr noundef %32)
  %34 = icmp ne i32 %33, 0
  br i1 %34, label %36, label %35

35:                                               ; preds = %31
  store i32 0, ptr %3, align 4
  store i32 1, ptr %7, align 4
  br label %42

36:                                               ; preds = %31
  %37 = load ptr, ptr %5, align 8, !tbaa !3
  %38 = load ptr, ptr %4, align 8, !tbaa !19
  %39 = getelementptr inbounds nuw %struct.PROV_EC_CTX, ptr %38, i32 0, i32 0
  store ptr %37, ptr %39, align 8, !tbaa !50
  %40 = load ptr, ptr %4, align 8, !tbaa !19
  %41 = getelementptr inbounds nuw %struct.PROV_EC_CTX, ptr %40, i32 0, i32 8
  store ptr @.str, ptr %41, align 8, !tbaa !52
  store i32 0, ptr %7, align 4
  br label %42

42:                                               ; preds = %36, %35, %30, %20
  call void @llvm.lifetime.end.p0(i64 8, ptr %6) #5
  %43 = load i32, ptr %7, align 4
  switch i32 %43, label %48 [
    i32 0, label %44
    i32 1, label %46
  ]

44:                                               ; preds = %42
  br label %45

45:                                               ; preds = %44, %2
  store i32 1, ptr %3, align 4
  br label %46

46:                                               ; preds = %45, %42
  %47 = load i32, ptr %3, align 4
  ret i32 %47

48:                                               ; preds = %42
  unreachable
}

; Function Attrs: nounwind uwtable
define internal void @eckem_freectx(ptr noundef %0) #0 {
  %2 = alloca ptr, align 8
  %3 = alloca ptr, align 8
  store ptr %0, ptr %2, align 8, !tbaa !19
  call void @llvm.lifetime.start.p0(i64 8, ptr %3) #5
  %4 = load ptr, ptr %2, align 8, !tbaa !19
  store ptr %4, ptr %3, align 8, !tbaa !19
  %5 = load ptr, ptr %3, align 8, !tbaa !19
  %6 = getelementptr inbounds nuw %struct.PROV_EC_CTX, ptr %5, i32 0, i32 6
  %7 = load ptr, ptr %6, align 8, !tbaa !39
  %8 = load ptr, ptr %3, align 8, !tbaa !19
  %9 = getelementptr inbounds nuw %struct.PROV_EC_CTX, ptr %8, i32 0, i32 7
  %10 = load i64, ptr %9, align 8, !tbaa !40
  call void @CRYPTO_clear_free(ptr noundef %7, i64 noundef %10, ptr noundef @.str.1, i32 noundef 208)
  %11 = load ptr, ptr %3, align 8, !tbaa !19
  %12 = call i32 @recipient_key_set(ptr noundef %11, ptr noundef null)
  %13 = load ptr, ptr %3, align 8, !tbaa !19
  %14 = call i32 @sender_authkey_set(ptr noundef %13, ptr noundef null)
  %15 = load ptr, ptr %3, align 8, !tbaa !19
  call void @CRYPTO_free(ptr noundef %15, ptr noundef @.str.1, i32 noundef 211)
  call void @llvm.lifetime.end.p0(i64 8, ptr %3) #5
  ret void
}