; Function Attrs: nounwind uwtable
define internal void @eckem_freectx(ptr noundef %0) #0 {
  %2 = getelementptr inbounds nuw i8, ptr %0, i64 40
  %3 = load ptr, ptr %2, align 8, !tbaa !27
  %4 = getelementptr inbounds nuw i8, ptr %0, i64 48
  %5 = load i64, ptr %4, align 8, !tbaa !28
  tail call void @CRYPTO_clear_free(ptr noundef %3, i64 noundef %5, ptr noundef nonnull @.str.1, i32 noundef 208) #5
  %6 = load ptr, ptr %0, align 8, !tbaa !30
  tail call void @EC_KEY_free(ptr noundef %6) #5
  store ptr null, ptr %0, align 8, !tbaa !30
  %7 = getelementptr inbounds nuw i8, ptr %0, i64 8
  %8 = load ptr, ptr %7, align 8, !tbaa !32
  tail call void @EC_KEY_free(ptr noundef %8) #5
  store ptr null, ptr %7, align 8, !tbaa !32
  tail call void @CRYPTO_free(ptr noundef nonnull %0, ptr noundef nonnull @.str.1, i32 noundef 211) #5
  ret void
}